target datalayout = "e-m:e-p270:32:32-p271:32:32-p272:64:64-i64:64-i128:128-f80:128-n8:16:32:64-S128"
target triple = "x86_64-pc-linux-gnu"

%"class.std::basic_ostream" = type { ptr, %"class.std::basic_ios" }
%"class.std::basic_ios" = type { %"class.std::ios_base", ptr, i8, i8, ptr, ptr, ptr, ptr }
%"class.std::ios_base" = type { ptr, i64, i64, i32, i32, i32, ptr, %"struct.std::ios_base::_Words", [8 x %"struct.std::ios_base::_Words"], i32, ptr, %"class.std::locale" }
%"struct.std::ios_base::_Words" = type { ptr, i64 }
%"class.std::locale" = type { ptr }
%"struct.std::atomic.58" = type { %"struct.std::__atomic_base.59" }
%"struct.std::__atomic_base.59" = type { i8 }
%"class.pxrInternal_v0_24__pxrReserved__::TfCallContext" = type <{ ptr, ptr, i64, ptr, i8, [7 x i8] }>
%"class.pxrInternal_v0_24__pxrReserved__::TfErrorMark" = type { i64 }
%"class.pxrInternal_v0_24__pxrReserved__::TfDiagnosticMgr" = type <{ ptr, %"class.pxrInternal_v0_24__pxrReserved__::TfWeakBase", %"class.tbb::detail::d1::enumerable_thread_specific", %"class.std::vector.159", %"class.tbb::detail::d1::spin_rw_mutex", %"struct.std::atomic.32", %"class.tbb::detail::d1::enumerable_thread_specific.164", %"class.tbb::detail::d1::enumerable_thread_specific.173", %"class.tbb::detail::d1::enumerable_thread_specific.182", i8, [7 x i8] }>
%"class.pxrInternal_v0_24__pxrReserved__::TfWeakBase" = type { %"struct.std::atomic.6" }
%"struct.std::atomic.6" = type { %"struct.std::__atomic_base.7" }
%"struct.std::__atomic_base.7" = type { ptr }
%"class.tbb::detail::d1::enumerable_thread_specific" = type { %"class.tbb::detail::d1::ets_base", ptr, %"class.tbb::detail::d1::concurrent_vector.151" }
%"class.tbb::detail::d1::ets_base" = type { ptr, %"struct.std::atomic.149", %"struct.std::atomic.32" }
%"struct.std::atomic.149" = type { %"struct.std::__atomic_base.150" }
%"struct.std::__atomic_base.150" = type { ptr }
%"class.tbb::detail::d1::concurrent_vector.151" = type { %"class.tbb::detail::d1::segment_table.base.157", [7 x i8] }
%"class.tbb::detail::d1::segment_table.base.157" = type <{ ptr, [8 x i8], %"struct.std::atomic.153", [3 x %"struct.std::atomic.155"], %"struct.std::atomic.32", %"struct.std::atomic.32", %"struct.std::atomic.58" }>
%"struct.std::atomic.153" = type { %"struct.std::__atomic_base.154" }
%"struct.std::__atomic_base.154" = type { ptr }
%"struct.std::atomic.155" = type { %"struct.std::__atomic_base.156" }
%"struct.std::__atomic_base.156" = type { ptr }
%"class.std::vector.159" = type { %"struct.std::_Vector_base.160" }
%"struct.std::_Vector_base.160" = type { %"struct.std::_Vector_base<pxrInternal_v0_24__pxrReserved__::TfDiagnosticMgr::Delegate *, std::allocator<pxrInternal_v0_24__pxrReserved__::TfDiagnosticMgr::Delegate *>>::_Vector_impl" }
%"struct.std::_Vector_base<pxrInternal_v0_24__pxrReserved__::TfDiagnosticMgr::Delegate *, std::allocator<pxrInternal_v0_24__pxrReserved__::TfDiagnosticMgr::Delegate *>>::_Vector_impl" = type { %"struct.std::_Vector_base<pxrInternal_v0_24__pxrReserved__::TfDiagnosticMgr::Delegate *, std::allocator<pxrInternal_v0_24__pxrReserved__::TfDiagnosticMgr::Delegate *>>::_Vector_impl_data" }
%"struct.std::_Vector_base<pxrInternal_v0_24__pxrReserved__::TfDiagnosticMgr::Delegate *, std::allocator<pxrInternal_v0_24__pxrReserved__::TfDiagnosticMgr::Delegate *>>::_Vector_impl_data" = type { ptr, ptr, ptr }
%"class.tbb::detail::d1::spin_rw_mutex" = type { %"struct.std::atomic.34" }
%"struct.std::atomic.34" = type { %"struct.std::__atomic_base.35" }
%"struct.std::__atomic_base.35" = type { i64 }
%"struct.std::atomic.32" = type { %"struct.std::__atomic_base.33" }
%"struct.std::__atomic_base.33" = type { i64 }
%"class.tbb::detail::d1::enumerable_thread_specific.164" = type { %"class.tbb::detail::d1::ets_base", ptr, %"class.tbb::detail::d1::concurrent_vector.165" }
%"class.tbb::detail::d1::concurrent_vector.165" = type { %"class.tbb::detail::d1::segment_table.base.171", [7 x i8] }
%"class.tbb::detail::d1::segment_table.base.171" = type <{ ptr, [8 x i8], %"struct.std::atomic.167", [3 x %"struct.std::atomic.169"], %"struct.std::atomic.32", %"struct.std::atomic.32", %"struct.std::atomic.58" }>
%"struct.std::atomic.167" = type { %"struct.std::__atomic_base.168" }
%"struct.std::__atomic_base.168" = type { ptr }
%"struct.std::atomic.169" = type { %"struct.std::__atomic_base.170" }
%"struct.std::__atomic_base.170" = type { ptr }
%"class.tbb::detail::d1::enumerable_thread_specific.173" = type { %"class.tbb::detail::d1::ets_base", ptr, %"class.tbb::detail::d1::concurrent_vector.174" }
%"class.tbb::detail::d1::concurrent_vector.174" = type { %"class.tbb::detail::d1::segment_table.base.180", [7 x i8] }
%"class.tbb::detail::d1::segment_table.base.180" = type <{ ptr, [8 x i8], %"struct.std::atomic.176", [3 x %"struct.std::atomic.178"], %"struct.std::atomic.32", %"struct.std::atomic.32", %"struct.std::atomic.58" }>
%"struct.std::atomic.176" = type { %"struct.std::__atomic_base.177" }
%"struct.std::__atomic_base.177" = type { ptr }
%"struct.std::atomic.178" = type { %"struct.std::__atomic_base.179" }
%"struct.std::__atomic_base.179" = type { ptr }
%"class.tbb::detail::d1::enumerable_thread_specific.182" = type { %"class.tbb::detail::d1::ets_base.base", ptr, %"class.tbb::detail::d1::concurrent_vector.184" }
%"class.tbb::detail::d1::ets_base.base" = type <{ %"class.tbb::detail::d1::ets_base", i32 }>
%"class.tbb::detail::d1::concurrent_vector.184" = type { %"class.tbb::detail::d1::segment_table.base.190", [7 x i8] }
%"class.tbb::detail::d1::segment_table.base.190" = type <{ ptr, [8 x i8], %"struct.std::atomic.186", [3 x %"struct.std::atomic.188"], %"struct.std::atomic.32", %"struct.std::atomic.32", %"struct.std::atomic.58" }>
%"struct.std::atomic.186" = type { %"struct.std::__atomic_base.187" }
%"struct.std::__atomic_base.187" = type { ptr }
%"struct.std::atomic.188" = type { %"struct.std::__atomic_base.189" }
%"struct.std::__atomic_base.189" = type { ptr }

@.str.2 = private unnamed_addr constant [165 x i8] c"generated/home/dtcxzyw/WorkSpace/Projects/compilers/llvm-opt-benchmark/bench/openusd/OpenUSD/pxr/usdImaging/usdImaging/testenv/testUsdImagingDataSourceAttribute.cpp\00", align 1
@__func__.main = private unnamed_addr constant [5 x i8] c"main\00", align 1
@__PRETTY_FUNCTION__.main = private unnamed_addr constant [11 x i8] c"int main()\00", align 1
@.str.38 = private unnamed_addr constant [15 x i8] c"mark.IsClean()\00", align 1
@_ZSt4cout = external global %"class.std::basic_ostream", align 8
@.str.39 = private unnamed_addr constant [3 x i8] c"OK\00", align 1
@.str.40 = private unnamed_addr constant [7 x i8] c"FAILED\00", align 1

; Function Attrs: mustprogress nounwind uwtable
define linkonce_odr dso_local noundef i32 @_ZStanSt12memory_orderSt23__memory_order_modifier(i32 noundef %0, i32 noundef %1) #6 comdat {
  %3 = alloca i32, align 4
  %4 = alloca i32, align 4
  store i32 %0, ptr %3, align 4
  store i32 %1, ptr %4, align 4
  %5 = load i32, ptr %3, align 4
  %6 = load i32, ptr %4, align 4
  %7 = and i32 %5, %6
  ret i32 %7
}

; Function Attrs: mustprogress nounwind uwtable
define linkonce_odr dso_local noundef i64 @_ZNKSt13__atomic_baseImEcvmEv(ptr noundef nonnull align 8 dereferenceable(8) %0) #6 comdat align 2 {
  %2 = alloca ptr, align 8
  %3 = alloca i32, align 4
  %4 = alloca i32, align 4
  %5 = alloca i64, align 8
  %6 = alloca ptr, align 8
  store ptr %0, ptr %6, align 8
  %7 = load ptr, ptr %6, align 8
  store ptr %7, ptr %2, align 8
  store i32 5, ptr %3, align 4
  %8 = load ptr, ptr %2, align 8
  %9 = load i32, ptr %3, align 4
  %10 = call noundef i32 @_ZStanSt12memory_orderSt23__memory_order_modifier(i32 noundef %9, i32 noundef 65535)
  store i32 %10, ptr %4, align 4
  %11 = load i32, ptr %3, align 4
  switch i32 %11, label %12 [
    i32 1, label %14
    i32 2, label %14
    i32 5, label %16
  ]

12:                                               ; preds = %1
  %13 = load atomic i64, ptr %8 monotonic, align 8
  store i64 %13, ptr %5, align 8
  br label %18

14:                                               ; preds = %1, %1
  %15 = load atomic i64, ptr %8 acquire, align 8
  store i64 %15, ptr %5, align 8
  br label %18

16:                                               ; preds = %1
  %17 = load atomic i64, ptr %8 seq_cst, align 8
  store i64 %17, ptr %5, align 8
  br label %18

18:                                               ; preds = %16, %14, %12
  %19 = load i64, ptr %5, align 8
  ret i64 %19
}

; Function Attrs: mustprogress uwtable
define linkonce_odr dso_local noundef nonnull align 8 dereferenceable(481) ptr @_ZN32pxrInternal_v0_24__pxrReserved__15TfDiagnosticMgr11GetInstanceEv() #4 comdat align 2 {
  %1 = call noundef nonnull align 8 dereferenceable(481) ptr @_ZN32pxrInternal_v0_24__pxrReserved__11TfSingletonINS_15TfDiagnosticMgrEE11GetInstanceEv()
  ret ptr %1
}

; Function Attrs: mustprogress nounwind uwtable
define linkonce_odr dso_local noundef ptr @_ZN32pxrInternal_v0_24__pxrReserved__21Tf_VerifyStringFormatEv() #6 comdat {
  ret ptr null
}

; Function Attrs: mustprogress nounwind uwtable
define linkonce_odr dso_local void @_ZN32pxrInternal_v0_24__pxrReserved__13TfCallContextC2EPKcS2_mS2_(ptr noundef nonnull align 8 dereferenceable(33) %0, ptr noundef %1, ptr noundef %2, i64 noundef %3, ptr noundef %4) unnamed_addr #6 comdat align 2 {
  %6 = alloca ptr, align 8
  %7 = alloca ptr, align 8
  %8 = alloca ptr, align 8
  %9 = alloca i64, align 8
  %10 = alloca ptr, align 8
  store ptr %0, ptr %6, align 8
  store ptr %1, ptr %7, align 8
  store ptr %2, ptr %8, align 8
  store i64 %3, ptr %9, align 8
  store ptr %4, ptr %10, align 8
  %11 = load ptr, ptr %6, align 8
  %12 = getelementptr inbounds nuw %"class.pxrInternal_v0_24__pxrReserved__::TfCallContext", ptr %11, i32 0, i32 0
  %13 = load ptr, ptr %7, align 8
  store ptr %13, ptr %12, align 8
  %14 = getelementptr inbounds nuw %"class.pxrInternal_v0_24__pxrReserved__::TfCallContext", ptr %11, i32 0, i32 1
  %15 = load ptr, ptr %8, align 8
  store ptr %15, ptr %14, align 8
  %16 = getelementptr inbounds nuw %"class.pxrInternal_v0_24__pxrReserved__::TfCallContext", ptr %11, i32 0, i32 2
  %17 = load i64, ptr %9, align 8
  store i64 %17, ptr %16, align 8
  %18 = getelementptr inbounds nuw %"class.pxrInternal_v0_24__pxrReserved__::TfCallContext", ptr %11, i32 0, i32 3
  %19 = load ptr, ptr %10, align 8
  store ptr %19, ptr %18, align 8
  %20 = getelementptr inbounds nuw %"class.pxrInternal_v0_24__pxrReserved__::TfCallContext", ptr %11, i32 0, i32 4
  store i8 0, ptr %20, align 8
  ret void
}

; Function Attrs: mustprogress uwtable
define linkonce_odr dso_local noundef zeroext i1 @_ZNK32pxrInternal_v0_24__pxrReserved__11TfErrorMark7IsCleanEv(ptr noundef nonnull align 8 dereferenceable(8) %0) #4 comdat align 2 {
  %2 = alloca ptr, align 8
  %3 = alloca ptr, align 8
  store ptr %0, ptr %2, align 8
  %4 = load ptr, ptr %2, align 8
  %5 = call noundef nonnull align 8 dereferenceable(481) ptr @_ZN32pxrInternal_v0_24__pxrReserved__15TfDiagnosticMgr11GetInstanceEv()
  store ptr %5, ptr %3, align 8
  %6 = getelementptr inbounds nuw %"class.pxrInternal_v0_24__pxrReserved__::TfErrorMark", ptr %4, i32 0, i32 0
  %7 = load i64, ptr %6, align 8
  %8 = load ptr, ptr %3, align 8
  %9 = getelementptr inbounds nuw %"class.pxrInternal_v0_24__pxrReserved__::TfDiagnosticMgr", ptr %8, i32 0, i32 5
  %10 = call noundef i64 @_ZNKSt13__atomic_baseImEcvmEv(ptr noundef nonnull align 8 dereferenceable(8) %9) #3
  %11 = icmp uge i64 %7, %10
  br i1 %11, label %15, label %12

12:                                               ; preds = %1
  %13 = load ptr, ptr %3, align 8
  %14 = call noundef zeroext i1 @_ZNK32pxrInternal_v0_24__pxrReserved__11TfErrorMark12_IsCleanImplERNS_15TfDiagnosticMgrE(ptr noundef nonnull align 8 dereferenceable(8) %4, ptr noundef nonnull align 8 dereferenceable(481) %13)
  br label %15

15:                                               ; preds = %12, %1
  %16 = phi i1 [ true, %1 ], [ %14, %12 ]
  ret i1 %16
}

; Function Attrs: mustprogress norecurse uwtable
define dso_local noundef i32 @main() #7 personality ptr @__gxx_personality_v0 {
  %1 = alloca i32, align 4
  %2 = alloca %"class.pxrInternal_v0_24__pxrReserved__::TfErrorMark", align 8
  %3 = alloca ptr, align 8
  %4 = alloca i32, align 4
  %5 = alloca %"class.pxrInternal_v0_24__pxrReserved__::TfCallContext", align 8
  store i32 0, ptr %1, align 4
  call void @_ZN32pxrInternal_v0_24__pxrReserved__11TfErrorMarkC1Ev(ptr noundef nonnull align 8 dereferenceable(8) %2)
  invoke void @_Z16RelationshipTestv()
          to label %6 unwind label %24

6:                                                ; preds = %0
  invoke void @_Z13AttributeTestv()
          to label %7 unwind label %24

7:                                                ; preds = %6
  %8 = invoke noundef zeroext i1 @_ZNK32pxrInternal_v0_24__pxrReserved__11TfErrorMark7IsCleanEv(ptr noundef nonnull align 8 dereferenceable(8) %2)
          to label %9 unwind label %24

9:                                                ; preds = %7
  br i1 %8, label %10, label %11

10:                                               ; preds = %9
  br label %17

11:                                               ; preds = %9
  invoke void @_ZN32pxrInternal_v0_24__pxrReserved__13TfCallContextC2EPKcS2_mS2_(ptr noundef nonnull align 8 dereferenceable(33) %5, ptr noundef @.str.2, ptr noundef @__func__.main, i64 noundef 191, ptr noundef @__PRETTY_FUNCTION__.main)
          to label %12 unwind label %24

12:                                               ; preds = %11
  %13 = invoke noundef ptr @_ZN32pxrInternal_v0_24__pxrReserved__21Tf_VerifyStringFormatEv()
          to label %14 unwind label %24

14:                                               ; preds = %12
  %15 = invoke noundef zeroext i1 @_ZN32pxrInternal_v0_24__pxrReserved__21Tf_FailedVerifyHelperERKNS_13TfCallContextEPKcS4_(ptr noundef nonnull align 8 dereferenceable(33) %5, ptr noundef @.str.38, ptr noundef %13)
          to label %16 unwind label %24

16:                                               ; preds = %14
  br label %17

17:                                               ; preds = %16, %10
  %18 = phi i1 [ true, %10 ], [ %15, %16 ]
  br i1 %18, label %19, label %28

19:                                               ; preds = %17
  %20 = invoke noundef nonnull align 8 dereferenceable(8) ptr @_ZStlsISt11char_traitsIcEERSt13basic_ostreamIcT_ES5_PKc(ptr noundef nonnull align 8 dereferenceable(8) @_ZSt4cout, ptr noundef @.str.39)
          to label %21 unwind label %24

21:                                               ; preds = %19
  %22 = invoke noundef nonnull align 8 dereferenceable(8) ptr @_ZNSolsEPFRSoS_E(ptr noundef nonnull align 8 dereferenceable(8) %20, ptr noundef @_ZSt4endlIcSt11char_traitsIcEERSt13basic_ostreamIT_T0_ES6_)
          to label %23 unwind label %24

23:                                               ; preds = %21
  br label %33

24:                                               ; preds = %30, %28, %21, %19, %14, %12, %11, %7, %6, %0
  %25 = landingpad { ptr, i32 }
          cleanup
  %26 = extractvalue { ptr, i32 } %25, 0
  store ptr %26, ptr %3, align 8
  %27 = extractvalue { ptr, i32 } %25, 1
  store i32 %27, ptr %4, align 4
  call void @_ZN32pxrInternal_v0_24__pxrReserved__11TfErrorMarkD1Ev(ptr noundef nonnull align 8 dereferenceable(8) %2) #3
  br label %35

28:                                               ; preds = %17
  %29 = invoke noundef nonnull align 8 dereferenceable(8) ptr @_ZStlsISt11char_traitsIcEERSt13basic_ostreamIcT_ES5_PKc(ptr noundef nonnull align 8 dereferenceable(8) @_ZSt4cout, ptr noundef @.str.40)
          to label %30 unwind label %24

30:                                               ; preds = %28
  %31 = invoke noundef nonnull align 8 dereferenceable(8) ptr @_ZNSolsEPFRSoS_E(ptr noundef nonnull align 8 dereferenceable(8) %29, ptr noundef @_ZSt4endlIcSt11char_traitsIcEERSt13basic_ostreamIT_T0_ES6_)
          to label %32 unwind label %24

32:                                               ; preds = %30
  br label %33

33:                                               ; preds = %32, %23
  call void @_ZN32pxrInternal_v0_24__pxrReserved__11TfErrorMarkD1Ev(ptr noundef nonnull align 8 dereferenceable(8) %2) #3
  %34 = load i32, ptr %1, align 4
  ret i32 %34

35:                                               ; preds = %24
  %36 = load ptr, ptr %3, align 8
  %37 = load i32, ptr %4, align 4
  %38 = insertvalue { ptr, i32 } poison, ptr %36, 0
  %39 = insertvalue { ptr, i32 } %38, i32 %37, 1
  resume { ptr, i32 } %39
}