; Function Attrs: mustprogress norecurse uwtable
define dso_local noundef i32 @main() local_unnamed_addr #6 personality ptr @__gxx_personality_v0 {
  %1 = alloca %"class.pxrInternal_v0_24__pxrReserved__::TfErrorMark", align 8
  %2 = alloca %"class.pxrInternal_v0_24__pxrReserved__::TfCallContext", align 8
  call void @_ZN32pxrInternal_v0_24__pxrReserved__11TfErrorMarkC1Ev(ptr noundef nonnull align 8 dereferenceable(8) %1)
  invoke void @_Z16RelationshipTestv()
          to label %3 unwind label %18

3:                                                ; preds = %0
  invoke void @_Z13AttributeTestv()
          to label %4 unwind label %18

4:                                                ; preds = %3
  %5 = invoke noundef nonnull align 8 dereferenceable(481) ptr @_ZN32pxrInternal_v0_24__pxrReserved__11TfSingletonINS_15TfDiagnosticMgrEE11GetInstanceEv()
          to label %.noexc unwind label %18

.noexc:                                           ; preds = %4
  %6 = load i64, ptr %1, align 8
  %7 = getelementptr inbounds nuw i8, ptr %5, i64 152
  %8 = load atomic i64, ptr %7 seq_cst, align 8
  %.not.i = icmp ult i64 %6, %8
  br i1 %.not.i, label %9, label %.critedge

9:                                                ; preds = %.noexc
  %10 = invoke noundef zeroext i1 @_ZNK32pxrInternal_v0_24__pxrReserved__11TfErrorMark12_IsCleanImplERNS_15TfDiagnosticMgrE(ptr noundef nonnull align 8 dereferenceable(8) %1, ptr noundef nonnull align 8 dereferenceable(481) %5)
          to label %_ZNK32pxrInternal_v0_24__pxrReserved__11TfErrorMark7IsCleanEv.exit unwind label %18

_ZNK32pxrInternal_v0_24__pxrReserved__11TfErrorMark7IsCleanEv.exit: ; preds = %9
  br i1 %10, label %.critedge, label %11

11:                                               ; preds = %_ZNK32pxrInternal_v0_24__pxrReserved__11TfErrorMark7IsCleanEv.exit
  store ptr @.str.2, ptr %2, align 8
  %12 = getelementptr inbounds nuw i8, ptr %2, i64 8
  store ptr @__func__.main, ptr %12, align 8
  %13 = getelementptr inbounds nuw i8, ptr %2, i64 16
  store i64 191, ptr %13, align 8
  %14 = getelementptr inbounds nuw i8, ptr %2, i64 24
  store ptr @__PRETTY_FUNCTION__.main, ptr %14, align 8
  %15 = getelementptr inbounds nuw i8, ptr %2, i64 32
  store i8 0, ptr %15, align 8
  %16 = invoke noundef zeroext i1 @_ZN32pxrInternal_v0_24__pxrReserved__21Tf_FailedVerifyHelperERKNS_13TfCallContextEPKcS4_(ptr noundef nonnull align 8 dereferenceable(33) %2, ptr noundef nonnull @.str.38, ptr noundef null)
          to label %17 unwind label %18

17:                                               ; preds = %11
  br i1 %16, label %.critedge, label %.invoke3

.critedge:                                        ; preds = %.noexc, %_ZNK32pxrInternal_v0_24__pxrReserved__11TfErrorMark7IsCleanEv.exit, %17
  br label %.invoke3

18:                                               ; preds = %.invoke3, %.invoke, %9, %4, %11, %3, %0
  %19 = landingpad { ptr, i32 }
          cleanup
  call void @_ZN32pxrInternal_v0_24__pxrReserved__11TfErrorMarkD1Ev(ptr noundef nonnull align 8 dereferenceable(8) %1) #21
  resume { ptr, i32 } %19

.invoke3:                                         ; preds = %17, %.critedge
  %20 = phi ptr [ @.str.39, %.critedge ], [ @.str.40, %17 ]
  %21 = invoke noundef nonnull align 8 dereferenceable(8) ptr @_ZStlsISt11char_traitsIcEERSt13basic_ostreamIcT_ES5_PKc(ptr noundef nonnull align 8 dereferenceable(8) @_ZSt4cout, ptr noundef nonnull %20)
          to label %.invoke unwind label %18

.invoke:                                          ; preds = %.invoke3
  %22 = invoke noundef nonnull align 8 dereferenceable(8) ptr @_ZNSolsEPFRSoS_E(ptr noundef nonnull align 8 dereferenceable(8) %21, ptr noundef nonnull @_ZSt4endlIcSt11char_traitsIcEERSt13basic_ostreamIT_T0_ES6_)
          to label %23 unwind label %18

23:                                               ; preds = %.invoke
  call void @_ZN32pxrInternal_v0_24__pxrReserved__11TfErrorMarkD1Ev(ptr noundef nonnull align 8 dereferenceable(8) %1) #21
  ret i32 0
}